target datalayout = "e-m:e-p270:32:32-p271:32:32-p272:64:64-i64:64-i128:128-f80:128-n8:16:32:64-S128"
target triple = "x86_64-pc-linux-gnu"

@.str = private unnamed_addr constant [34 x i8] c"../openssl/crypto/bio/bio_sock2.c\00", align 1
@__func__.BIO_socket = private unnamed_addr constant [11 x i8] c"BIO_socket\00", align 1
@.str.1 = private unnamed_addr constant [17 x i8] c"calling socket()\00", align 1

; Function Attrs: nounwind uwtable
define i32 @BIO_socket(i32 noundef %0, i32 noundef %1, i32 noundef %2, i32 noundef %3) #0 {
  %5 = alloca i32, align 4
  %6 = alloca i32, align 4
  %7 = alloca i32, align 4
  %8 = alloca i32, align 4
  %9 = alloca i32, align 4
  %10 = alloca i32, align 4
  %11 = alloca i32, align 4
  store i32 %0, ptr %6, align 4, !tbaa !3
  store i32 %1, ptr %7, align 4, !tbaa !3
  store i32 %2, ptr %8, align 4, !tbaa !3
  store i32 %3, ptr %9, align 4, !tbaa !3
  call void @llvm.lifetime.start.p0(i64 4, ptr %10) #5
  store i32 -1, ptr %10, align 4, !tbaa !3
  %12 = call i32 @BIO_sock_init()
  %13 = icmp ne i32 %12, 1
  br i1 %13, label %14, label %15

14:                                               ; preds = %4
  store i32 -1, ptr %5, align 4
  store i32 1, ptr %11, align 4
  br label %27

15:                                               ; preds = %4
  %16 = load i32, ptr %6, align 4, !tbaa !3
  %17 = load i32, ptr %7, align 4, !tbaa !3
  %18 = load i32, ptr %8, align 4, !tbaa !3
  %19 = call i32 @socket(i32 noundef %16, i32 noundef %17, i32 noundef %18) #5
  store i32 %19, ptr %10, align 4, !tbaa !3
  %20 = load i32, ptr %10, align 4, !tbaa !3
  %21 = icmp eq i32 %20, -1
  br i1 %21, label %22, label %25

22:                                               ; preds = %15
  call void @ERR_new()
  call void @ERR_set_debug(ptr noundef @.str, i32 noundef 51, ptr noundef @__func__.BIO_socket)
  %23 = call ptr @__errno_location() #6
  %24 = load i32, ptr %23, align 4, !tbaa !3
  call void (i32, i32, ptr, ...) @ERR_set_error(i32 noundef 2, i32 noundef %24, ptr noundef @.str.1)
  call void @ERR_new()
  call void @ERR_set_debug(ptr noundef @.str, i32 noundef 53, ptr noundef @__func__.BIO_socket)
  call void (i32, i32, ptr, ...) @ERR_set_error(i32 noundef 32, i32 noundef 118, ptr noundef null)
  store i32 -1, ptr %5, align 4
  store i32 1, ptr %11, align 4
  br label %27

25:                                               ; preds = %15
  %26 = load i32, ptr %10, align 4, !tbaa !3
  store i32 %26, ptr %5, align 4
  store i32 1, ptr %11, align 4
  br label %27

27:                                               ; preds = %25, %22, %14
  call void @llvm.lifetime.end.p0(i64 4, ptr %10) #5
  %28 = load i32, ptr %5, align 4
  ret i32 %28
}