; Function Attrs: nounwind uwtable
define i32 @BIO_socket(i32 noundef %0, i32 noundef %1, i32 noundef %2, i32 noundef %3) local_unnamed_addr #0 {
  %5 = tail call i32 @BIO_sock_init() #5
  %.not = icmp eq i32 %5, 1
  br i1 %.not, label %6, label %12

6:                                                ; preds = %4
  %7 = tail call i32 @socket(i32 noundef %0, i32 noundef %1, i32 noundef %2) #5
  %8 = icmp eq i32 %7, -1
  br i1 %8, label %9, label %12

9:                                                ; preds = %6
  tail call void @ERR_new() #5
  tail call void @ERR_set_debug(ptr noundef nonnull @.str, i32 noundef 51, ptr noundef nonnull @__func__.BIO_socket) #5
  %10 = tail call ptr @__errno_location() #6
  %11 = load i32, ptr %10, align 4, !tbaa !3
  tail call void (i32, i32, ptr, ...) @ERR_set_error(i32 noundef 2, i32 noundef %11, ptr noundef nonnull @.str.1) #5
  tail call void @ERR_new() #5
  tail call void @ERR_set_debug(ptr noundef nonnull @.str, i32 noundef 53, ptr noundef nonnull @__func__.BIO_socket) #5
  tail call void (i32, i32, ptr, ...) @ERR_set_error(i32 noundef 32, i32 noundef 118, ptr noundef null) #5
  br label %12

12:                                               ; preds = %6, %4, %9
  %.0 = phi i32 [ -1, %9 ], [ -1, %4 ], [ %7, %6 ]
  ret i32 %.0
}